; Function Attrs: mustprogress uwtable
define void @_ZN6duckdb18StringColumnReaderC2ERNS_13ParquetReaderERKNS_19ParquetColumnSchemaE(ptr noundef nonnull align 8 dereferenceable(552) %0, ptr noundef nonnull align 8 dereferenceable(560) %1, ptr noundef nonnull align 8 dereferenceable(144) %2) unnamed_addr #3 align 2 {
  tail call void @_ZN6duckdb12ColumnReaderC2ERNS_13ParquetReaderERKNS_19ParquetColumnSchemaE(ptr noundef nonnull align 8 dereferenceable(544) %0, ptr noundef nonnull align 8 dereferenceable(560) %1, ptr noundef nonnull align 8 dereferenceable(144) %2)
  store ptr getelementptr inbounds nuw inrange(-16, 152) (i8, ptr @_ZTVN6duckdb18StringColumnReaderE, i64 16), ptr %0, align 8, !tbaa !3
  %4 = getelementptr inbounds nuw i8, ptr %0, i64 544
  store i64 0, ptr %4, align 8, !tbaa !350
  %5 = getelementptr inbounds nuw i8, ptr %2, i64 104
  %6 = load i32, ptr %5, align 8, !tbaa !221
  %.not = icmp eq i32 %6, 0
  br i1 %.not, label %9, label %7

7:                                                ; preds = %3
  %8 = zext i32 %6 to i64
  store i64 %8, ptr %4, align 8, !tbaa !350
  br label %9

9:                                                ; preds = %7, %3
  ret void
}